target datalayout = "e-m:e-p270:32:32-p271:32:32-p272:64:64-i64:64-i128:128-f80:128-n8:16:32:64-S128"
target triple = "x86_64-pc-linux-gnu"

%"class.llvm::SmallVectorBase" = type { ptr, i32, i32 }
%"class.llvm::ConstantHoistingPass" = type { ptr, ptr, ptr, ptr, ptr, ptr, ptr, i8, %"class.std::vector.19", %"class.llvm::MapVector", %"class.llvm::SmallVector.32", %"class.llvm::MapVector.37", %"class.llvm::MapVector.43" }
%"class.std::vector.19" = type { %"struct.std::_Vector_base.20" }
%"struct.std::_Vector_base.20" = type { %"struct.std::_Vector_base<llvm::consthoist::ConstantCandidate, std::allocator<llvm::consthoist::ConstantCandidate>>::_Vector_impl" }
%"struct.std::_Vector_base<llvm::consthoist::ConstantCandidate, std::allocator<llvm::consthoist::ConstantCandidate>>::_Vector_impl" = type { %"struct.std::_Vector_base<llvm::consthoist::ConstantCandidate, std::allocator<llvm::consthoist::ConstantCandidate>>::_Vector_impl_data" }
%"struct.std::_Vector_base<llvm::consthoist::ConstantCandidate, std::allocator<llvm::consthoist::ConstantCandidate>>::_Vector_impl_data" = type { ptr, ptr, ptr }
%"class.llvm::MapVector" = type { %"class.llvm::DenseMap.24", %"class.llvm::SmallVector.27" }
%"class.llvm::DenseMap.24" = type <{ ptr, i32, i32, i32, [4 x i8] }>
%"class.llvm::SmallVector.27" = type { %"class.llvm::SmallVectorImpl.28" }
%"class.llvm::SmallVectorImpl.28" = type { %"class.llvm::SmallVectorTemplateBase.29" }
%"class.llvm::SmallVectorTemplateBase.29" = type { %"class.llvm::SmallVectorTemplateCommon.30" }
%"class.llvm::SmallVectorTemplateCommon.30" = type { %"class.llvm::SmallVectorBase" }
%"class.llvm::SmallVector.32" = type { %"class.llvm::SmallVectorImpl.33", %"struct.llvm::SmallVectorStorage.36" }
%"class.llvm::SmallVectorImpl.33" = type { %"class.llvm::SmallVectorTemplateBase.34" }
%"class.llvm::SmallVectorTemplateBase.34" = type { %"class.llvm::SmallVectorTemplateCommon.35" }
%"class.llvm::SmallVectorTemplateCommon.35" = type { %"class.llvm::SmallVectorBase" }
%"struct.llvm::SmallVectorStorage.36" = type { [5376 x i8] }
%"class.llvm::MapVector.37" = type { %"class.llvm::DenseMap.24", %"class.llvm::SmallVector.38" }
%"class.llvm::SmallVector.38" = type { %"class.llvm::SmallVectorImpl.39" }
%"class.llvm::SmallVectorImpl.39" = type { %"class.llvm::SmallVectorTemplateBase.40" }
%"class.llvm::SmallVectorTemplateBase.40" = type { %"class.llvm::SmallVectorTemplateCommon.41" }
%"class.llvm::SmallVectorTemplateCommon.41" = type { %"class.llvm::SmallVectorBase" }
%"class.llvm::MapVector.43" = type { %"class.llvm::DenseMap.44", %"class.llvm::SmallVector.47" }
%"class.llvm::DenseMap.44" = type <{ ptr, i32, i32, i32, [4 x i8] }>
%"class.llvm::SmallVector.47" = type { %"class.llvm::SmallVectorImpl.48" }
%"class.llvm::SmallVectorImpl.48" = type { %"class.llvm::SmallVectorTemplateBase.49" }
%"class.llvm::SmallVectorTemplateBase.49" = type { %"class.llvm::SmallVectorTemplateCommon.50" }
%"class.llvm::SmallVectorTemplateCommon.50" = type { %"class.llvm::SmallVectorBase" }
%"class.llvm::ilist_iterator_w_bits" = type <{ ptr, i8, i8, [6 x i8] }>
%"class.llvm::Value" = type { i8, i8, i16, i32, ptr, ptr }
%"struct.std::pair.202" = type { ptr, ptr }

; Function Attrs: mustprogress nounwind uwtable
define linkonce_odr hidden void @_ZNK4llvm5Value26assertModuleIsMaterializedEv(ptr noundef nonnull align 8 dereferenceable(24) %0) #1 comdat align 2 {
  %2 = alloca ptr, align 8
  store ptr %0, ptr %2, align 8
  ret void
}

; Function Attrs: mustprogress nounwind uwtable
define linkonce_odr hidden noundef ptr @_ZNK4llvm25SmallVectorTemplateCommonISt4pairIPNS_11InstructionES3_EvE3endEv(ptr noundef nonnull align 8 dereferenceable(16) %0) #1 comdat align 2 {
  %2 = alloca ptr, align 8
  store ptr %0, ptr %2, align 8
  %3 = load ptr, ptr %2, align 8
  %4 = call noundef ptr @_ZNK4llvm25SmallVectorTemplateCommonISt4pairIPNS_11InstructionES3_EvE5beginEv(ptr noundef nonnull align 8 dereferenceable(16) %3)
  %5 = call noundef i64 @_ZNK4llvm15SmallVectorBaseIjE4sizeEv(ptr noundef nonnull align 8 dereferenceable(16) %3)
  %6 = getelementptr inbounds %"struct.std::pair.202", ptr %4, i64 %5
  ret ptr %6
}

; Function Attrs: mustprogress nounwind uwtable
define linkonce_odr hidden noundef ptr @_ZNK4llvm25SmallVectorTemplateCommonISt4pairIPNS_11InstructionES3_EvE5beginEv(ptr noundef nonnull align 8 dereferenceable(16) %0) #1 comdat align 2 {
  %2 = alloca ptr, align 8
  store ptr %0, ptr %2, align 8
  %3 = load ptr, ptr %2, align 8
  %4 = getelementptr inbounds nuw %"class.llvm::SmallVectorBase", ptr %3, i32 0, i32 0
  %5 = load ptr, ptr %4, align 8
  ret ptr %5
}

; Function Attrs: mustprogress nounwind uwtable
define linkonce_odr hidden noundef zeroext i1 @_ZNK4llvm5Value9use_emptyEv(ptr noundef nonnull align 8 dereferenceable(24) %0) #1 comdat align 2 {
  %2 = alloca ptr, align 8
  store ptr %0, ptr %2, align 8
  %3 = load ptr, ptr %2, align 8
  call void @_ZNK4llvm5Value26assertModuleIsMaterializedEv(ptr noundef nonnull align 8 dereferenceable(24) %3)
  %4 = getelementptr inbounds nuw %"class.llvm::Value", ptr %3, i32 0, i32 5
  %5 = load ptr, ptr %4, align 8
  %6 = icmp eq ptr %5, null
  ret i1 %6
}

; Function Attrs: mustprogress nounwind uwtable
define linkonce_odr hidden noundef ptr @_ZNK4llvm9MapVectorIPNS_11InstructionES2_NS_8DenseMapIS2_jNS_12DenseMapInfoIS2_vEENS_6detail12DenseMapPairIS2_jEEEENS_11SmallVectorISt4pairIS2_S2_ELj0EEEE3endEv(ptr noundef nonnull align 8 dereferenceable(40) %0) #1 comdat align 2 {
  %2 = alloca ptr, align 8
  store ptr %0, ptr %2, align 8
  %3 = load ptr, ptr %2, align 8
  %4 = getelementptr inbounds nuw %"class.llvm::MapVector.43", ptr %3, i32 0, i32 1
  %5 = call noundef ptr @_ZNK4llvm25SmallVectorTemplateCommonISt4pairIPNS_11InstructionES3_EvE3endEv(ptr noundef nonnull align 8 dereferenceable(16) %4)
  ret ptr %5
}

; Function Attrs: mustprogress nounwind uwtable
define linkonce_odr hidden noundef ptr @_ZNK4llvm9MapVectorIPNS_11InstructionES2_NS_8DenseMapIS2_jNS_12DenseMapInfoIS2_vEENS_6detail12DenseMapPairIS2_jEEEENS_11SmallVectorISt4pairIS2_S2_ELj0EEEE5beginEv(ptr noundef nonnull align 8 dereferenceable(40) %0) #1 comdat align 2 {
  %2 = alloca ptr, align 8
  store ptr %0, ptr %2, align 8
  %3 = load ptr, ptr %2, align 8
  %4 = getelementptr inbounds nuw %"class.llvm::MapVector.43", ptr %3, i32 0, i32 1
  %5 = call noundef ptr @_ZNK4llvm25SmallVectorTemplateCommonISt4pairIPNS_11InstructionES3_EvE5beginEv(ptr noundef nonnull align 8 dereferenceable(16) %4)
  ret ptr %5
}

; Function Attrs: mustprogress nounwind uwtable
define dso_local void @_ZNK4llvm20ConstantHoistingPass18deleteDeadCastInstEv(ptr noundef nonnull align 8 dereferenceable(5600) %0) #1 align 2 {
  %2 = alloca ptr, align 8
  %3 = alloca ptr, align 8
  %4 = alloca ptr, align 8
  %5 = alloca ptr, align 8
  %6 = alloca ptr, align 8
  %7 = alloca %"class.llvm::ilist_iterator_w_bits", align 8
  store ptr %0, ptr %2, align 8
  %8 = load ptr, ptr %2, align 8
  %9 = getelementptr inbounds nuw %"class.llvm::ConstantHoistingPass", ptr %8, i32 0, i32 12
  store ptr %9, ptr %3, align 8
  %10 = load ptr, ptr %3, align 8
  %11 = call noundef ptr @_ZNK4llvm9MapVectorIPNS_11InstructionES2_NS_8DenseMapIS2_jNS_12DenseMapInfoIS2_vEENS_6detail12DenseMapPairIS2_jEEEENS_11SmallVectorISt4pairIS2_S2_ELj0EEEE5beginEv(ptr noundef nonnull align 8 dereferenceable(40) %10)
  store ptr %11, ptr %4, align 8
  %12 = load ptr, ptr %3, align 8
  %13 = call noundef ptr @_ZNK4llvm9MapVectorIPNS_11InstructionES2_NS_8DenseMapIS2_jNS_12DenseMapInfoIS2_vEENS_6detail12DenseMapPairIS2_jEEEENS_11SmallVectorISt4pairIS2_S2_ELj0EEEE3endEv(ptr noundef nonnull align 8 dereferenceable(40) %12)
  store ptr %13, ptr %5, align 8
  br label %14

14:                                               ; preds = %34, %1
  %15 = load ptr, ptr %4, align 8
  %16 = load ptr, ptr %5, align 8
  %17 = icmp ne ptr %15, %16
  br i1 %17, label %18, label %37

18:                                               ; preds = %14
  %19 = load ptr, ptr %4, align 8
  store ptr %19, ptr %6, align 8
  %20 = load ptr, ptr %6, align 8
  %21 = getelementptr inbounds nuw %"struct.std::pair.202", ptr %20, i32 0, i32 0
  %22 = load ptr, ptr %21, align 8
  %23 = call noundef zeroext i1 @_ZNK4llvm5Value9use_emptyEv(ptr noundef nonnull align 8 dereferenceable(24) %22)
  br i1 %23, label %24, label %33

24:                                               ; preds = %18
  %25 = load ptr, ptr %6, align 8
  %26 = getelementptr inbounds nuw %"struct.std::pair.202", ptr %25, i32 0, i32 0
  %27 = load ptr, ptr %26, align 8
  %28 = call { ptr, i64 } @_ZN4llvm11Instruction15eraseFromParentEv(ptr noundef nonnull align 8 dereferenceable(72) %27)
  %29 = getelementptr inbounds nuw { ptr, i64 }, ptr %7, i32 0, i32 0
  %30 = extractvalue { ptr, i64 } %28, 0
  store ptr %30, ptr %29, align 8
  %31 = getelementptr inbounds nuw { ptr, i64 }, ptr %7, i32 0, i32 1
  %32 = extractvalue { ptr, i64 } %28, 1
  store i64 %32, ptr %31, align 8
  br label %33

33:                                               ; preds = %24, %18
  br label %34

34:                                               ; preds = %33
  %35 = load ptr, ptr %4, align 8
  %36 = getelementptr inbounds %"struct.std::pair.202", ptr %35, i32 1
  store ptr %36, ptr %4, align 8
  br label %14

37:                                               ; preds = %14
  ret void
}