; Function Attrs: mustprogress nounwind uwtable
define dso_local void @_ZNK4llvm20ConstantHoistingPass18deleteDeadCastInstEv(ptr noundef nonnull align 8 dereferenceable(5600) %0) local_unnamed_addr #0 align 2 {
  %2 = getelementptr inbounds nuw i8, ptr %0, i64 5584
  %3 = load ptr, ptr %2, align 8
  %4 = tail call noundef i64 @_ZNK4llvm15SmallVectorBaseIjE4sizeEv(ptr noundef nonnull align 8 dereferenceable(16) %2) #20
  %5 = getelementptr inbounds %"struct.std::pair.202", ptr %3, i64 %4
  %.not9 = icmp eq i64 %4, 0
  br i1 %.not9, label %._crit_edge, label %.lr.ph

.lr.ph:                                           ; preds = %1, %12
  %.010 = phi ptr [ %13, %12 ], [ %3, %1 ]
  %6 = load ptr, ptr %.010, align 8
  %7 = getelementptr inbounds nuw i8, ptr %6, i64 16
  %8 = load ptr, ptr %7, align 8
  %9 = icmp eq ptr %8, null
  br i1 %9, label %10, label %12

10:                                               ; preds = %.lr.ph
  %11 = tail call { ptr, i64 } @_ZN4llvm11Instruction15eraseFromParentEv(ptr noundef nonnull align 8 dereferenceable(72) %6) #20
  br label %12

12:                                               ; preds = %.lr.ph, %10
  %13 = getelementptr inbounds nuw i8, ptr %.010, i64 16
  %.not = icmp eq ptr %13, %5
  br i1 %.not, label %._crit_edge, label %.lr.ph

._crit_edge:                                      ; preds = %12, %1
  ret void
}